; Function Attrs: mustprogress uwtable
define noundef zeroext i1 @_ZN6duckdb13ParquetWriter17TryGetParquetTypeERKNS_11LogicalTypeENS_12optional_ptrIN14duckdb_parquet4Type4typeELb1EEE(ptr noundef nonnull readonly align 8 captures(none) dereferenceable(24) %0, ptr %1) local_unnamed_addr #3 align 2 personality ptr @__gxx_personality_v0 {
  %3 = alloca %"class.duckdb::optional_ptr", align 8
  %4 = alloca %"class.std::__cxx11::basic_string", align 8
  %5 = alloca %"class.std::allocator.4", align 1
  store ptr %1, ptr %3, align 8
  %6 = load i8, ptr %0, align 8, !tbaa !49
  switch i8 %6, label %38 [
    i8 10, label %35
    i8 11, label %7
    i8 12, label %7
    i8 13, label %7
    i8 15, label %7
    i8 14, label %8
    i8 22, label %9
    i8 23, label %10
    i8 49, label %10
    i8 50, label %10
    i8 104, label %11
    i8 26, label %11
    i8 25, label %11
    i8 16, label %12
    i8 34, label %12
    i8 19, label %12
    i8 32, label %12
    i8 18, label %12
    i8 20, label %12
    i8 17, label %12
    i8 28, label %13
    i8 29, label %13
    i8 30, label %13
    i8 31, label %8
    i8 27, label %14
    i8 54, label %14
    i8 21, label %15
  ]

7:                                                ; preds = %2, %2, %2, %2
  br label %35

8:                                                ; preds = %2, %2
  br label %35

9:                                                ; preds = %2
  br label %35

10:                                               ; preds = %2, %2, %2
  br label %35

11:                                               ; preds = %2, %2, %2
  br label %35

12:                                               ; preds = %2, %2, %2, %2, %2, %2, %2
  br label %35

13:                                               ; preds = %2, %2, %2
  br label %35

14:                                               ; preds = %2, %2
  br label %35

15:                                               ; preds = %2
  %16 = getelementptr inbounds nuw i8, ptr %0, i64 1
  %17 = load i8, ptr %16, align 1, !tbaa !59
  switch i8 %17, label %20 [
    i8 5, label %35
    i8 7, label %35
    i8 9, label %18
    i8 -52, label %19
  ]

18:                                               ; preds = %15
  br label %35

19:                                               ; preds = %15
  br label %35

20:                                               ; preds = %15
  %21 = tail call ptr @__cxa_allocate_exception(i64 16) #27
  call void @llvm.lifetime.start.p0(i64 32, ptr nonnull %4) #27
  call void @llvm.lifetime.start.p0(i64 1, ptr nonnull %5) #27
  invoke void @_ZNSt7__cxx1112basic_stringIcSt11char_traitsIcESaIcEEC2EPKcRKS3_(ptr noundef nonnull align 8 dereferenceable(32) %4, ptr noundef nonnull @.str, ptr noundef nonnull align 1 dereferenceable(1) %5)
          to label %22 unwind label %_ZNSt7__cxx1112basic_stringIcSt11char_traitsIcESaIcEED2Ev.exit.thread

22:                                               ; preds = %20
  invoke void @_ZN6duckdb17InternalExceptionC1ERKNSt7__cxx1112basic_stringIcSt11char_traitsIcESaIcEEE(ptr noundef nonnull align 8 dereferenceable(16) %21, ptr noundef nonnull align 8 dereferenceable(32) %4)
          to label %23 unwind label %25

23:                                               ; preds = %22
  invoke void @__cxa_throw(ptr nonnull %21, ptr nonnull @_ZTIN6duckdb17InternalExceptionE, ptr nonnull @_ZNSt13runtime_errorD2Ev) #29
          to label %39 unwind label %25

_ZNSt7__cxx1112basic_stringIcSt11char_traitsIcESaIcEED2Ev.exit.thread: ; preds = %20
  %24 = landingpad { ptr, i32 }
          cleanup
  call void @llvm.lifetime.end.p0(i64 1, ptr nonnull %5) #27
  call void @llvm.lifetime.end.p0(i64 32, ptr nonnull %4) #27
  br label %33

25:                                               ; preds = %23, %22
  %.0 = phi i1 [ false, %23 ], [ true, %22 ]
  %26 = landingpad { ptr, i32 }
          cleanup
  %27 = load ptr, ptr %4, align 8, !tbaa !44
  %28 = getelementptr inbounds nuw i8, ptr %4, i64 16
  %29 = icmp eq ptr %27, %28
  br i1 %29, label %_ZNKSt7__cxx1112basic_stringIcSt11char_traitsIcESaIcEE11_M_is_localEv.exit.thread.i.i, label %_ZNSt7__cxx1112basic_stringIcSt11char_traitsIcESaIcEED2Ev.exit

_ZNKSt7__cxx1112basic_stringIcSt11char_traitsIcESaIcEE11_M_is_localEv.exit.thread.i.i: ; preds = %25
  %30 = getelementptr inbounds nuw i8, ptr %4, i64 8
  %31 = load i64, ptr %30, align 8, !tbaa !48
  %32 = icmp ult i64 %31, 16
  call void @llvm.assume(i1 %32)
  call void @llvm.lifetime.end.p0(i64 1, ptr nonnull %5) #27
  call void @llvm.lifetime.end.p0(i64 32, ptr nonnull %4) #27
  br i1 %.0, label %33, label %34

_ZNSt7__cxx1112basic_stringIcSt11char_traitsIcESaIcEED2Ev.exit: ; preds = %25
  call void @_ZdlPv(ptr noundef %27) #28
  call void @llvm.lifetime.end.p0(i64 1, ptr nonnull %5) #27
  call void @llvm.lifetime.end.p0(i64 32, ptr nonnull %4) #27
  br i1 %.0, label %33, label %34

33:                                               ; preds = %_ZNKSt7__cxx1112basic_stringIcSt11char_traitsIcESaIcEE11_M_is_localEv.exit.thread.i.i, %_ZNSt7__cxx1112basic_stringIcSt11char_traitsIcESaIcEED2Ev.exit.thread, %_ZNSt7__cxx1112basic_stringIcSt11char_traitsIcESaIcEED2Ev.exit
  %.pn14 = phi { ptr, i32 } [ %24, %_ZNSt7__cxx1112basic_stringIcSt11char_traitsIcESaIcEED2Ev.exit.thread ], [ %26, %_ZNSt7__cxx1112basic_stringIcSt11char_traitsIcESaIcEED2Ev.exit ], [ %26, %_ZNKSt7__cxx1112basic_stringIcSt11char_traitsIcESaIcEE11_M_is_localEv.exit.thread.i.i ]
  call void @__cxa_free_exception(ptr %21) #27
  br label %34

34:                                               ; preds = %_ZNKSt7__cxx1112basic_stringIcSt11char_traitsIcESaIcEE11_M_is_localEv.exit.thread.i.i, %33, %_ZNSt7__cxx1112basic_stringIcSt11char_traitsIcESaIcEED2Ev.exit
  %.pn13 = phi { ptr, i32 } [ %.pn14, %33 ], [ %26, %_ZNSt7__cxx1112basic_stringIcSt11char_traitsIcESaIcEED2Ev.exit ], [ %26, %_ZNKSt7__cxx1112basic_stringIcSt11char_traitsIcESaIcEE11_M_is_localEv.exit.thread.i.i ]
  resume { ptr, i32 } %.pn13

35:                                               ; preds = %15, %15, %2, %18, %19, %14, %13, %12, %11, %10, %9, %8, %7
  %.08 = phi i32 [ 7, %19 ], [ 2, %18 ], [ 7, %14 ], [ 1, %13 ], [ 2, %12 ], [ 6, %11 ], [ 5, %10 ], [ 4, %9 ], [ 2, %8 ], [ 1, %7 ], [ 0, %2 ], [ 1, %15 ], [ 1, %15 ]
  %.not = icmp eq ptr %1, null
  br i1 %.not, label %38, label %36

36:                                               ; preds = %35
  call void @_ZNK6duckdb12optional_ptrIN14duckdb_parquet4Type4typeELb1EE10CheckValidEv(ptr noundef nonnull align 8 dereferenceable(8) %3)
  %37 = load ptr, ptr %3, align 8, !tbaa !60
  store i32 %.08, ptr %37, align 4, !tbaa !62
  br label %38

38:                                               ; preds = %35, %36, %2
  %.09 = phi i1 [ false, %2 ], [ true, %36 ], [ true, %35 ]
  ret i1 %.09

39:                                               ; preds = %23
  unreachable
}